target datalayout = "e-m:e-p270:32:32-p271:32:32-p272:64:64-i64:64-i128:128-f80:128-n8:16:32:64-S128"
target triple = "x86_64-unknown-linux-gnu"

%"class.std::__cxx11::basic_string" = type { %"struct.std::__cxx11::basic_string<char>::_Alloc_hider", i64, %union.anon }
%"struct.std::__cxx11::basic_string<char>::_Alloc_hider" = type { ptr }
%union.anon = type { i64, [8 x i8] }
%"class.std::allocator.2" = type { i8 }

@__dso_handle = external hidden global i8
@_ZZN7rocksdb23JemallocNodumpAllocator11IsSupportedEPNSt7__cxx1112basic_stringIcSt11char_traitsIcESaIcEEEE11unsupportedB5cxx11 = internal global %"class.std::__cxx11::basic_string" zeroinitializer, align 8
@_ZGVZN7rocksdb23JemallocNodumpAllocator11IsSupportedEPNSt7__cxx1112basic_stringIcSt11char_traitsIcESaIcEEEE11unsupportedB5cxx11 = internal global i64 0, align 8
@.str.4 = private unnamed_addr constant [98 x i8] c"JemallocNodumpAllocator only available with jemalloc version >= 5 and MADV_DONTDUMP is available.\00", align 1

; Function Attrs: mustprogress nounwind uwtable
define internal noundef zeroext i1 @_ZL11HasJemallocv() #3 {
entry:
  br i1 icmp ne (ptr @mallocx, ptr null), label %land.lhs.true, label %land.end

land.lhs.true:                                    ; preds = %entry
  br i1 icmp ne (ptr @rallocx, ptr null), label %land.lhs.true1, label %land.end

land.lhs.true1:                                   ; preds = %land.lhs.true
  br i1 icmp ne (ptr @xallocx, ptr null), label %land.lhs.true2, label %land.end

land.lhs.true2:                                   ; preds = %land.lhs.true1
  br i1 icmp ne (ptr @sallocx, ptr null), label %land.lhs.true3, label %land.end

land.lhs.true3:                                   ; preds = %land.lhs.true2
  br i1 icmp ne (ptr @dallocx, ptr null), label %land.lhs.true4, label %land.end

land.lhs.true4:                                   ; preds = %land.lhs.true3
  br i1 icmp ne (ptr @sdallocx, ptr null), label %land.lhs.true5, label %land.end

land.lhs.true5:                                   ; preds = %land.lhs.true4
  br i1 icmp ne (ptr @nallocx, ptr null), label %land.lhs.true6, label %land.end

land.lhs.true6:                                   ; preds = %land.lhs.true5
  br i1 icmp ne (ptr @mallctl, ptr null), label %land.lhs.true7, label %land.end

land.lhs.true7:                                   ; preds = %land.lhs.true6
  br i1 icmp ne (ptr @mallctlnametomib, ptr null), label %land.lhs.true8, label %land.end

land.lhs.true8:                                   ; preds = %land.lhs.true7
  br i1 icmp ne (ptr @mallctlbymib, ptr null), label %land.lhs.true9, label %land.end

land.lhs.true9:                                   ; preds = %land.lhs.true8
  br i1 icmp ne (ptr @malloc_stats_print, ptr null), label %land.rhs, label %land.end

land.rhs:                                         ; preds = %land.lhs.true9
  br label %land.end

land.end:                                         ; preds = %land.rhs, %land.lhs.true9, %land.lhs.true8, %land.lhs.true7, %land.lhs.true6, %land.lhs.true5, %land.lhs.true4, %land.lhs.true3, %land.lhs.true2, %land.lhs.true1, %land.lhs.true, %entry
  %0 = phi i1 [ false, %land.lhs.true9 ], [ false, %land.lhs.true8 ], [ false, %land.lhs.true7 ], [ false, %land.lhs.true6 ], [ false, %land.lhs.true5 ], [ false, %land.lhs.true4 ], [ false, %land.lhs.true3 ], [ false, %land.lhs.true2 ], [ false, %land.lhs.true1 ], [ false, %land.lhs.true ], [ false, %entry ], [ icmp ne (ptr @malloc_usable_size, ptr null), %land.rhs ]
  ret i1 %0
}

; Function Attrs: mustprogress uwtable
define noundef zeroext i1 @_ZN7rocksdb23JemallocNodumpAllocator11IsSupportedEPNSt7__cxx1112basic_stringIcSt11char_traitsIcESaIcEEE(ptr noundef %why) #2 align 2 personality ptr @__gxx_personality_v0 {
entry:
  %retval = alloca i1, align 1
  %why.addr = alloca ptr, align 8
  %ref.tmp = alloca %"class.std::allocator.2", align 1
  %exn.slot = alloca ptr, align 8
  %ehselector.slot = alloca i32, align 4
  store ptr %why, ptr %why.addr, align 8
  %0 = load atomic i8, ptr @_ZGVZN7rocksdb23JemallocNodumpAllocator11IsSupportedEPNSt7__cxx1112basic_stringIcSt11char_traitsIcESaIcEEEE11unsupportedB5cxx11 acquire, align 8
  %guard.uninitialized = icmp eq i8 %0, 0
  br i1 %guard.uninitialized, label %init.check, label %init.end, !prof !4

init.check:                                       ; preds = %entry
  %1 = call i32 @__cxa_guard_acquire(ptr @_ZGVZN7rocksdb23JemallocNodumpAllocator11IsSupportedEPNSt7__cxx1112basic_stringIcSt11char_traitsIcESaIcEEEE11unsupportedB5cxx11) #4
  %tobool = icmp ne i32 %1, 0
  br i1 %tobool, label %init, label %init.end

init:                                             ; preds = %init.check
  call void @_ZNSaIcEC1Ev(ptr noundef nonnull align 1 dereferenceable(1) %ref.tmp) #4
  invoke void @_ZNSt7__cxx1112basic_stringIcSt11char_traitsIcESaIcEEC2IS3_EEPKcRKS3_(ptr noundef nonnull align 8 dereferenceable(32) @_ZZN7rocksdb23JemallocNodumpAllocator11IsSupportedEPNSt7__cxx1112basic_stringIcSt11char_traitsIcESaIcEEEE11unsupportedB5cxx11, ptr noundef @.str.4, ptr noundef nonnull align 1 dereferenceable(1) %ref.tmp)
          to label %invoke.cont unwind label %lpad

invoke.cont:                                      ; preds = %init
  call void @_ZNSaIcED1Ev(ptr noundef nonnull align 1 dereferenceable(1) %ref.tmp) #4
  %2 = call i32 @__cxa_atexit(ptr @_ZNSt7__cxx1112basic_stringIcSt11char_traitsIcESaIcEED1Ev, ptr @_ZZN7rocksdb23JemallocNodumpAllocator11IsSupportedEPNSt7__cxx1112basic_stringIcSt11char_traitsIcESaIcEEEE11unsupportedB5cxx11, ptr @__dso_handle) #4
  call void @__cxa_guard_release(ptr @_ZGVZN7rocksdb23JemallocNodumpAllocator11IsSupportedEPNSt7__cxx1112basic_stringIcSt11char_traitsIcESaIcEEEE11unsupportedB5cxx11) #4
  br label %init.end

init.end:                                         ; preds = %invoke.cont, %init.check, %entry
  %call = call noundef zeroext i1 @_ZL11HasJemallocv()
  br i1 %call, label %if.end, label %if.then

if.then:                                          ; preds = %init.end
  %3 = load ptr, ptr %why.addr, align 8
  %call1 = call noundef nonnull align 8 dereferenceable(32) ptr @_ZNSt7__cxx1112basic_stringIcSt11char_traitsIcESaIcEEaSERKS4_(ptr noundef nonnull align 8 dereferenceable(32) %3, ptr noundef nonnull align 8 dereferenceable(32) @_ZZN7rocksdb23JemallocNodumpAllocator11IsSupportedEPNSt7__cxx1112basic_stringIcSt11char_traitsIcESaIcEEEE11unsupportedB5cxx11)
  store i1 false, ptr %retval, align 1
  br label %return

lpad:                                             ; preds = %init
  %4 = landingpad { ptr, i32 }
          cleanup
  %5 = extractvalue { ptr, i32 } %4, 0
  store ptr %5, ptr %exn.slot, align 8
  %6 = extractvalue { ptr, i32 } %4, 1
  store i32 %6, ptr %ehselector.slot, align 4
  call void @_ZNSaIcED1Ev(ptr noundef nonnull align 1 dereferenceable(1) %ref.tmp) #4
  call void @__cxa_guard_abort(ptr @_ZGVZN7rocksdb23JemallocNodumpAllocator11IsSupportedEPNSt7__cxx1112basic_stringIcSt11char_traitsIcESaIcEEEE11unsupportedB5cxx11) #4
  br label %eh.resume

if.end:                                           ; preds = %init.end
  store i1 true, ptr %retval, align 1
  br label %return

return:                                           ; preds = %if.end, %if.then
  %7 = load i1, ptr %retval, align 1
  ret i1 %7

eh.resume:                                        ; preds = %lpad
  %exn = load ptr, ptr %exn.slot, align 8
  %sel = load i32, ptr %ehselector.slot, align 4
  %lpad.val = insertvalue { ptr, i32 } poison, ptr %exn, 0
  %lpad.val2 = insertvalue { ptr, i32 } %lpad.val, i32 %sel, 1
  resume { ptr, i32 } %lpad.val2
}