; Function Attrs: mustprogress uwtable
define noundef zeroext i1 @_ZN7rocksdb23JemallocNodumpAllocator11IsSupportedEPNSt7__cxx1112basic_stringIcSt11char_traitsIcESaIcEEE(ptr noundef %why) local_unnamed_addr #1 align 2 personality ptr @__gxx_personality_v0 {
entry:
  %ref.tmp = alloca %"class.std::allocator.2", align 1
  %0 = load atomic i8, ptr @_ZGVZN7rocksdb23JemallocNodumpAllocator11IsSupportedEPNSt7__cxx1112basic_stringIcSt11char_traitsIcESaIcEEEE11unsupportedB5cxx11 acquire, align 8
  %guard.uninitialized = icmp eq i8 %0, 0
  br i1 %guard.uninitialized, label %init.check, label %init.end, !prof !6

init.check:                                       ; preds = %entry
  %1 = tail call i32 @__cxa_guard_acquire(ptr nonnull @_ZGVZN7rocksdb23JemallocNodumpAllocator11IsSupportedEPNSt7__cxx1112basic_stringIcSt11char_traitsIcESaIcEEEE11unsupportedB5cxx11) #24
  %tobool.not = icmp eq i32 %1, 0
  br i1 %tobool.not, label %init.end, label %init

init:                                             ; preds = %init.check
  call void @_ZNSaIcEC1Ev(ptr noundef nonnull align 1 dereferenceable(1) %ref.tmp) #24
  invoke void @_ZNSt7__cxx1112basic_stringIcSt11char_traitsIcESaIcEEC2IS3_EEPKcRKS3_(ptr noundef nonnull align 8 dereferenceable(32) @_ZZN7rocksdb23JemallocNodumpAllocator11IsSupportedEPNSt7__cxx1112basic_stringIcSt11char_traitsIcESaIcEEEE11unsupportedB5cxx11, ptr noundef nonnull @.str.4, ptr noundef nonnull align 1 dereferenceable(1) %ref.tmp)
          to label %invoke.cont unwind label %lpad

invoke.cont:                                      ; preds = %init
  call void @_ZNSaIcED1Ev(ptr noundef nonnull align 1 dereferenceable(1) %ref.tmp) #24
  %2 = call i32 @__cxa_atexit(ptr nonnull @_ZNSt7__cxx1112basic_stringIcSt11char_traitsIcESaIcEED1Ev, ptr nonnull @_ZZN7rocksdb23JemallocNodumpAllocator11IsSupportedEPNSt7__cxx1112basic_stringIcSt11char_traitsIcESaIcEEEE11unsupportedB5cxx11, ptr nonnull @__dso_handle) #24
  call void @__cxa_guard_release(ptr nonnull @_ZGVZN7rocksdb23JemallocNodumpAllocator11IsSupportedEPNSt7__cxx1112basic_stringIcSt11char_traitsIcESaIcEEEE11unsupportedB5cxx11) #24
  br label %init.end

init.end:                                         ; preds = %invoke.cont, %init.check, %entry
  %brmerge.i = or i1 icmp eq (ptr @mallocx, ptr null), icmp eq (ptr @rallocx, ptr null)
  %brmerge3.i = or i1 %brmerge.i, icmp eq (ptr @xallocx, ptr null)
  %brmerge5.i = or i1 %brmerge3.i, icmp eq (ptr @sallocx, ptr null)
  %brmerge7.i = or i1 %brmerge5.i, icmp eq (ptr @dallocx, ptr null)
  %brmerge9.i = or i1 %brmerge7.i, icmp eq (ptr @sdallocx, ptr null)
  %brmerge11.i = or i1 %brmerge9.i, icmp eq (ptr @nallocx, ptr null)
  %brmerge13.i = or i1 %brmerge11.i, icmp eq (ptr @mallctl, ptr null)
  %brmerge15.i = or i1 %brmerge13.i, icmp eq (ptr @mallctlnametomib, ptr null)
  %brmerge17.i = or i1 %brmerge15.i, icmp eq (ptr @mallctlbymib, ptr null)
  %spec.select.i = select i1 icmp ne (ptr @malloc_stats_print, ptr null), i1 icmp ne (ptr @malloc_usable_size, ptr null), i1 false
  %not.brmerge17.i = xor i1 %brmerge17.i, true
  %spec.select18.i = and i1 %spec.select.i, %not.brmerge17.i
  br i1 %spec.select18.i, label %return, label %if.then

if.then:                                          ; preds = %init.end
  %call1 = call noundef nonnull align 8 dereferenceable(32) ptr @_ZNSt7__cxx1112basic_stringIcSt11char_traitsIcESaIcEEaSERKS4_(ptr noundef nonnull align 8 dereferenceable(32) %why, ptr noundef nonnull align 8 dereferenceable(32) @_ZZN7rocksdb23JemallocNodumpAllocator11IsSupportedEPNSt7__cxx1112basic_stringIcSt11char_traitsIcESaIcEEEE11unsupportedB5cxx11)
  br label %return

lpad:                                             ; preds = %init
  %3 = landingpad { ptr, i32 }
          cleanup
  call void @_ZNSaIcED1Ev(ptr noundef nonnull align 1 dereferenceable(1) %ref.tmp) #24
  call void @__cxa_guard_abort(ptr nonnull @_ZGVZN7rocksdb23JemallocNodumpAllocator11IsSupportedEPNSt7__cxx1112basic_stringIcSt11char_traitsIcESaIcEEEE11unsupportedB5cxx11) #24
  resume { ptr, i32 } %3

return:                                           ; preds = %init.end, %if.then
  ret i1 %spec.select18.i
}